target datalayout = "e-m:e-p270:32:32-p271:32:32-p272:64:64-i64:64-i128:128-f80:128-n8:16:32:64-S128"
target triple = "x86_64-pc-linux-gnu"

%struct.mbedtls_ssl_context = type { ptr, i32, i32, i32, i32, i32, ptr, ptr, ptr, ptr, ptr, ptr, ptr, ptr, ptr, ptr, ptr, ptr, ptr, ptr, ptr, ptr, ptr, ptr, ptr, ptr, ptr, ptr, ptr, ptr, ptr, ptr, ptr, i32, i64, i64, i16, i64, i64, i64, i64, i32, i32, i8, i8, i32, i8, ptr, ptr, ptr, ptr, ptr, ptr, ptr, i32, i64, i64, [8 x i8], i16, ptr, ptr, ptr, i64, i32, i64, [12 x i8], [12 x i8], [32 x i8], i8, i8, ptr, ptr, %union.mbedtls_ssl_user_data_t }
%union.mbedtls_ssl_user_data_t = type { i64 }
%struct.mbedtls_ssl_config = type { i32, i32, i8, i8, i8, i8, i8, i8, i8, i8, i8, i8, i16, i8, i8, i8, ptr, i32, ptr, ptr, ptr, ptr, ptr, ptr, ptr, ptr, ptr, ptr, ptr, ptr, ptr, ptr, ptr, ptr, ptr, ptr, ptr, i64, ptr, ptr, ptr, ptr, ptr, ptr, ptr, ptr, %struct.mbedtls_mpi, %struct.mbedtls_mpi, ptr, i64, ptr, i64, ptr, i32, i32, i32, i32, [8 x i8], i32, i32, %union.mbedtls_ssl_user_data_t, ptr, ptr }
%struct.mbedtls_mpi = type { ptr, i16, i16 }

@debug_threshold = internal global i32 0, align 4
@.str.4 = private unnamed_addr constant [6 x i8] c" %02x\00", align 1
@.str.8 = private unnamed_addr constant [29 x i8] c"value of '%s' (%u bits) is:\0A\00", align 1
@.str.9 = private unnamed_addr constant [2 x i8] c"\0A\00", align 1

; Function Attrs: inlinehint nounwind uwtable
define internal void @debug_send_line(ptr noundef %0, i32 noundef %1, ptr noundef %2, i32 noundef %3, ptr noundef %4) #4 {
  %6 = alloca ptr, align 8
  %7 = alloca i32, align 4
  %8 = alloca ptr, align 8
  %9 = alloca i32, align 4
  %10 = alloca ptr, align 8
  store ptr %0, ptr %6, align 8, !tbaa !7
  store i32 %1, ptr %7, align 4, !tbaa !3
  store ptr %2, ptr %8, align 8, !tbaa !10
  store i32 %3, ptr %9, align 4, !tbaa !3
  store ptr %4, ptr %10, align 8, !tbaa !10
  %11 = load ptr, ptr %6, align 8, !tbaa !7
  %12 = getelementptr inbounds nuw %struct.mbedtls_ssl_context, ptr %11, i32 0, i32 0
  %13 = load ptr, ptr %12, align 8, !tbaa !12
  %14 = getelementptr inbounds nuw %struct.mbedtls_ssl_config, ptr %13, i32 0, i32 18
  %15 = load ptr, ptr %14, align 8, !tbaa !20
  %16 = load ptr, ptr %6, align 8, !tbaa !7
  %17 = getelementptr inbounds nuw %struct.mbedtls_ssl_context, ptr %16, i32 0, i32 0
  %18 = load ptr, ptr %17, align 8, !tbaa !12
  %19 = getelementptr inbounds nuw %struct.mbedtls_ssl_config, ptr %18, i32 0, i32 19
  %20 = load ptr, ptr %19, align 8, !tbaa !33
  %21 = load i32, ptr %7, align 4, !tbaa !3
  %22 = load ptr, ptr %8, align 8, !tbaa !10
  %23 = load i32, ptr %9, align 4, !tbaa !3
  %24 = load ptr, ptr %10, align 8, !tbaa !10
  call void %15(ptr noundef %20, i32 noundef %21, ptr noundef %22, i32 noundef %23, ptr noundef %24)
  ret void
}

; Function Attrs: nounwind uwtable
define hidden void @mbedtls_debug_print_mpi(ptr noundef %0, i32 noundef %1, ptr noundef %2, i32 noundef %3, ptr noundef %4, ptr noundef %5) #0 {
  %7 = alloca ptr, align 8
  %8 = alloca i32, align 4
  %9 = alloca ptr, align 8
  %10 = alloca i32, align 4
  %11 = alloca ptr, align 8
  %12 = alloca ptr, align 8
  %13 = alloca [512 x i8], align 16
  %14 = alloca i64, align 8
  %15 = alloca i64, align 8
  %16 = alloca i32, align 4
  %17 = alloca i32, align 4
  %18 = alloca i64, align 8
  %19 = alloca i64, align 8
  %20 = alloca i8, align 1
  store ptr %0, ptr %7, align 8, !tbaa !7
  store i32 %1, ptr %8, align 4, !tbaa !3
  store ptr %2, ptr %9, align 8, !tbaa !10
  store i32 %3, ptr %10, align 4, !tbaa !3
  store ptr %4, ptr %11, align 8, !tbaa !10
  store ptr %5, ptr %12, align 8, !tbaa !40
  call void @llvm.lifetime.start.p0(i64 512, ptr %13) #8
  call void @llvm.lifetime.start.p0(i64 8, ptr %14) #8
  call void @llvm.lifetime.start.p0(i64 8, ptr %15) #8
  store i64 0, ptr %15, align 8, !tbaa !34
  %21 = load ptr, ptr %7, align 8, !tbaa !7
  %22 = icmp eq ptr null, %21
  br i1 %22, label %42, label %23

23:                                               ; preds = %6
  %24 = load ptr, ptr %7, align 8, !tbaa !7
  %25 = getelementptr inbounds nuw %struct.mbedtls_ssl_context, ptr %24, i32 0, i32 0
  %26 = load ptr, ptr %25, align 8, !tbaa !12
  %27 = icmp eq ptr null, %26
  br i1 %27, label %42, label %28

28:                                               ; preds = %23
  %29 = load ptr, ptr %7, align 8, !tbaa !7
  %30 = getelementptr inbounds nuw %struct.mbedtls_ssl_context, ptr %29, i32 0, i32 0
  %31 = load ptr, ptr %30, align 8, !tbaa !12
  %32 = getelementptr inbounds nuw %struct.mbedtls_ssl_config, ptr %31, i32 0, i32 18
  %33 = load ptr, ptr %32, align 8, !tbaa !20
  %34 = icmp eq ptr null, %33
  br i1 %34, label %42, label %35

35:                                               ; preds = %28
  %36 = load ptr, ptr %12, align 8, !tbaa !40
  %37 = icmp eq ptr null, %36
  br i1 %37, label %42, label %38

38:                                               ; preds = %35
  %39 = load i32, ptr %8, align 4, !tbaa !3
  %40 = load i32, ptr @debug_threshold, align 4, !tbaa !3
  %41 = icmp sgt i32 %39, %40
  br i1 %41, label %42, label %43

42:                                               ; preds = %38, %35, %28, %23, %6
  store i32 1, ptr %16, align 4
  br label %133

43:                                               ; preds = %38
  %44 = load ptr, ptr %12, align 8, !tbaa !40
  %45 = call i64 @mbedtls_mpi_bitlen(ptr noundef %44)
  store i64 %45, ptr %14, align 8, !tbaa !34
  %46 = getelementptr inbounds [512 x i8], ptr %13, i64 0, i64 0
  %47 = load ptr, ptr %11, align 8, !tbaa !10
  %48 = load i64, ptr %14, align 8, !tbaa !34
  %49 = trunc i64 %48 to i32
  %50 = call i32 (ptr, i64, ptr, ...) @snprintf(ptr noundef %46, i64 noundef 512, ptr noundef @.str.8, ptr noundef %47, i32 noundef %49) #8
  %51 = load ptr, ptr %7, align 8, !tbaa !7
  %52 = load i32, ptr %8, align 4, !tbaa !3
  %53 = load ptr, ptr %9, align 8, !tbaa !10
  %54 = load i32, ptr %10, align 4, !tbaa !3
  %55 = getelementptr inbounds [512 x i8], ptr %13, i64 0, i64 0
  call void @debug_send_line(ptr noundef %51, i32 noundef %52, ptr noundef %53, i32 noundef %54, ptr noundef %55)
  %56 = load i64, ptr %14, align 8, !tbaa !34
  %57 = icmp eq i64 %56, 0
  br i1 %57, label %58, label %62

58:                                               ; preds = %43
  %59 = getelementptr inbounds [512 x i8], ptr %13, i64 0, i64 0
  store i8 32, ptr %59, align 16, !tbaa !32
  %60 = getelementptr inbounds [512 x i8], ptr %13, i64 0, i64 1
  store i8 48, ptr %60, align 1, !tbaa !32
  %61 = getelementptr inbounds [512 x i8], ptr %13, i64 0, i64 2
  store i8 48, ptr %61, align 2, !tbaa !32
  store i64 3, ptr %15, align 8, !tbaa !34
  br label %117

62:                                               ; preds = %43
  call void @llvm.lifetime.start.p0(i64 4, ptr %17) #8
  %63 = load i64, ptr %14, align 8, !tbaa !34
  %64 = sub i64 %63, 1
  %65 = udiv i64 %64, 8
  %66 = trunc i64 %65 to i32
  store i32 %66, ptr %17, align 4, !tbaa !3
  br label %67

67:                                               ; preds = %113, %62
  %68 = load i32, ptr %17, align 4, !tbaa !3
  %69 = icmp sge i32 %68, 0
  br i1 %69, label %70, label %116

70:                                               ; preds = %67
  call void @llvm.lifetime.start.p0(i64 8, ptr %18) #8
  %71 = load i32, ptr %17, align 4, !tbaa !3
  %72 = sext i32 %71 to i64
  %73 = udiv i64 %72, 8
  store i64 %73, ptr %18, align 8, !tbaa !34
  call void @llvm.lifetime.start.p0(i64 8, ptr %19) #8
  %74 = load i32, ptr %17, align 4, !tbaa !3
  %75 = sext i32 %74 to i64
  %76 = urem i64 %75, 8
  store i64 %76, ptr %19, align 8, !tbaa !34
  call void @llvm.lifetime.start.p0(i64 1, ptr %20) #8
  %77 = load ptr, ptr %12, align 8, !tbaa !40
  %78 = getelementptr inbounds nuw %struct.mbedtls_mpi, ptr %77, i32 0, i32 0
  %79 = load ptr, ptr %78, align 8, !tbaa !42
  %80 = load i64, ptr %18, align 8, !tbaa !34
  %81 = getelementptr inbounds nuw i64, ptr %79, i64 %80
  %82 = load i64, ptr %81, align 8, !tbaa !34
  %83 = load i64, ptr %19, align 8, !tbaa !34
  %84 = mul i64 %83, 8
  %85 = lshr i64 %82, %84
  %86 = and i64 %85, 255
  %87 = trunc i64 %86 to i8
  store i8 %87, ptr %20, align 1, !tbaa !32
  %88 = getelementptr inbounds [512 x i8], ptr %13, i64 0, i64 0
  %89 = load i64, ptr %15, align 8, !tbaa !34
  %90 = getelementptr inbounds nuw i8, ptr %88, i64 %89
  %91 = load i64, ptr %15, align 8, !tbaa !34
  %92 = sub i64 512, %91
  %93 = load i8, ptr %20, align 1, !tbaa !32
  %94 = zext i8 %93 to i32
  %95 = call i32 (ptr, i64, ptr, ...) @snprintf(ptr noundef %90, i64 noundef %92, ptr noundef @.str.4, i32 noundef %94) #8
  %96 = load i64, ptr %15, align 8, !tbaa !34
  %97 = add i64 %96, 3
  store i64 %97, ptr %15, align 8, !tbaa !34
  %98 = load i64, ptr %15, align 8, !tbaa !34
  %99 = icmp uge i64 %98, 48
  br i1 %99, label %100, label %112

100:                                              ; preds = %70
  %101 = getelementptr inbounds [512 x i8], ptr %13, i64 0, i64 0
  %102 = load i64, ptr %15, align 8, !tbaa !34
  %103 = getelementptr inbounds nuw i8, ptr %101, i64 %102
  %104 = load i64, ptr %15, align 8, !tbaa !34
  %105 = sub i64 512, %104
  %106 = call i32 (ptr, i64, ptr, ...) @snprintf(ptr noundef %103, i64 noundef %105, ptr noundef @.str.9) #8
  %107 = load ptr, ptr %7, align 8, !tbaa !7
  %108 = load i32, ptr %8, align 4, !tbaa !3
  %109 = load ptr, ptr %9, align 8, !tbaa !10
  %110 = load i32, ptr %10, align 4, !tbaa !3
  %111 = getelementptr inbounds [512 x i8], ptr %13, i64 0, i64 0
  call void @debug_send_line(ptr noundef %107, i32 noundef %108, ptr noundef %109, i32 noundef %110, ptr noundef %111)
  store i64 0, ptr %15, align 8, !tbaa !34
  br label %112

112:                                              ; preds = %100, %70
  call void @llvm.lifetime.end.p0(i64 1, ptr %20) #8
  call void @llvm.lifetime.end.p0(i64 8, ptr %19) #8
  call void @llvm.lifetime.end.p0(i64 8, ptr %18) #8
  br label %113

113:                                              ; preds = %112
  %114 = load i32, ptr %17, align 4, !tbaa !3
  %115 = add nsw i32 %114, -1
  store i32 %115, ptr %17, align 4, !tbaa !3
  br label %67, !llvm.loop !43

116:                                              ; preds = %67
  call void @llvm.lifetime.end.p0(i64 4, ptr %17) #8
  br label %117

117:                                              ; preds = %116, %58
  %118 = load i64, ptr %15, align 8, !tbaa !34
  %119 = icmp ne i64 %118, 0
  br i1 %119, label %120, label %132

120:                                              ; preds = %117
  %121 = getelementptr inbounds [512 x i8], ptr %13, i64 0, i64 0
  %122 = load i64, ptr %15, align 8, !tbaa !34
  %123 = getelementptr inbounds nuw i8, ptr %121, i64 %122
  %124 = load i64, ptr %15, align 8, !tbaa !34
  %125 = sub i64 512, %124
  %126 = call i32 (ptr, i64, ptr, ...) @snprintf(ptr noundef %123, i64 noundef %125, ptr noundef @.str.9) #8
  %127 = load ptr, ptr %7, align 8, !tbaa !7
  %128 = load i32, ptr %8, align 4, !tbaa !3
  %129 = load ptr, ptr %9, align 8, !tbaa !10
  %130 = load i32, ptr %10, align 4, !tbaa !3
  %131 = getelementptr inbounds [512 x i8], ptr %13, i64 0, i64 0
  call void @debug_send_line(ptr noundef %127, i32 noundef %128, ptr noundef %129, i32 noundef %130, ptr noundef %131)
  br label %132

132:                                              ; preds = %120, %117
  store i32 0, ptr %16, align 4
  br label %133

133:                                              ; preds = %132, %42
  call void @llvm.lifetime.end.p0(i64 8, ptr %15) #8
  call void @llvm.lifetime.end.p0(i64 8, ptr %14) #8
  call void @llvm.lifetime.end.p0(i64 512, ptr %13) #8
  %134 = load i32, ptr %16, align 4
  switch i32 %134, label %136 [
    i32 0, label %135
    i32 1, label %135
  ]

135:                                              ; preds = %133, %133
  ret void

136:                                              ; preds = %133
  unreachable
}