; Function Attrs: nounwind uwtable
define hidden void @mbedtls_debug_print_mpi(ptr noundef readonly %0, i32 noundef %1, ptr noundef %2, i32 noundef %3, ptr noundef %4, ptr noundef %5) local_unnamed_addr #1 {
  %7 = alloca [512 x i8], align 16
  call void @llvm.lifetime.start.p0(i64 512, ptr nonnull %7) #9
  %8 = icmp eq ptr %0, null
  br i1 %8, label %._crit_edge.thread, label %9

9:                                                ; preds = %6
  %10 = load ptr, ptr %0, align 8, !tbaa !7
  %11 = icmp eq ptr %10, null
  br i1 %11, label %._crit_edge.thread, label %12

12:                                               ; preds = %9
  %13 = getelementptr inbounds nuw i8, ptr %10, i64 40
  %14 = load ptr, ptr %13, align 8, !tbaa !17
  %15 = icmp eq ptr %14, null
  %16 = icmp eq ptr %5, null
  %or.cond = or i1 %16, %15
  %17 = load i32, ptr @debug_threshold, align 4
  %18 = icmp sgt i32 %1, %17
  %or.cond48 = select i1 %or.cond, i1 true, i1 %18
  br i1 %or.cond48, label %._crit_edge.thread, label %19

19:                                               ; preds = %12
  %20 = tail call i64 @mbedtls_mpi_bitlen(ptr noundef nonnull %5) #9
  %21 = trunc i64 %20 to i32
  %22 = call i32 (ptr, i64, ptr, ...) @snprintf(ptr noundef nonnull dereferenceable(1) %7, i64 noundef 512, ptr noundef nonnull @.str.8, ptr noundef %4, i32 noundef %21) #9
  %.val50 = load ptr, ptr %0, align 8, !tbaa !7
  %23 = getelementptr i8, ptr %.val50, i64 40
  %.val50.val = load ptr, ptr %23, align 8, !tbaa !17
  %24 = getelementptr i8, ptr %.val50, i64 48
  %.val50.val51 = load ptr, ptr %24, align 8, !tbaa !30
  call void %.val50.val(ptr noundef %.val50.val51, i32 noundef %1, ptr noundef %2, i32 noundef %3, ptr noundef nonnull %7) #9
  %25 = icmp eq i64 %20, 0
  br i1 %25, label %.thread, label %28

.thread:                                          ; preds = %19
  store i8 32, ptr %7, align 16, !tbaa !29
  %26 = getelementptr inbounds nuw i8, ptr %7, i64 1
  store i8 48, ptr %26, align 1, !tbaa !29
  %27 = getelementptr inbounds nuw i8, ptr %7, i64 2
  store i8 48, ptr %27, align 2, !tbaa !29
  br label %56

28:                                               ; preds = %19
  %29 = add i64 %20, 34359738367
  %30 = and i64 %29, 17179869184
  %31 = icmp eq i64 %30, 0
  br i1 %31, label %.lr.ph.preheader, label %._crit_edge.thread

.lr.ph.preheader:                                 ; preds = %28
  %32 = lshr i64 %29, 3
  %33 = and i64 %32, 2147483647
  br label %.lr.ph

.lr.ph:                                           ; preds = %.lr.ph.preheader, %54
  %indvars.iv = phi i64 [ %33, %.lr.ph.preheader ], [ %indvars.iv.next, %54 ]
  %.158 = phi i64 [ 0, %.lr.ph.preheader ], [ %.2, %54 ]
  %34 = lshr i64 %indvars.iv, 3
  %35 = load ptr, ptr %5, align 8, !tbaa !34
  %36 = getelementptr inbounds nuw i64, ptr %35, i64 %34
  %37 = load i64, ptr %36, align 8, !tbaa !35
  %38 = shl nuw nsw i64 %indvars.iv, 3
  %39 = and i64 %38, 56
  %40 = lshr i64 %37, %39
  %41 = trunc i64 %40 to i32
  %42 = getelementptr inbounds nuw i8, ptr %7, i64 %.158
  %43 = sub i64 512, %.158
  %44 = and i32 %41, 255
  %45 = call i32 (ptr, i64, ptr, ...) @snprintf(ptr noundef nonnull %42, i64 noundef %43, ptr noundef nonnull @.str.4, i32 noundef %44) #9
  %46 = add nsw i64 %.158, 3
  %47 = icmp ugt i64 %46, 47
  br i1 %47, label %48, label %54

48:                                               ; preds = %.lr.ph
  %49 = getelementptr inbounds nuw i8, ptr %7, i64 %46
  %50 = sub i64 509, %.158
  %51 = call i32 (ptr, i64, ptr, ...) @snprintf(ptr noundef nonnull %49, i64 noundef %50, ptr noundef nonnull @.str.9) #9
  %.val49 = load ptr, ptr %0, align 8, !tbaa !7
  %52 = getelementptr i8, ptr %.val49, i64 40
  %.val49.val = load ptr, ptr %52, align 8, !tbaa !17
  %53 = getelementptr i8, ptr %.val49, i64 48
  %.val49.val52 = load ptr, ptr %53, align 8, !tbaa !30
  call void %.val49.val(ptr noundef %.val49.val52, i32 noundef %1, ptr noundef %2, i32 noundef %3, ptr noundef nonnull %7) #9
  br label %54

54:                                               ; preds = %48, %.lr.ph
  %.2 = phi i64 [ 0, %48 ], [ %46, %.lr.ph ]
  %indvars.iv.next = add nsw i64 %indvars.iv, -1
  %55 = icmp sgt i64 %indvars.iv, 0
  br i1 %55, label %.lr.ph, label %._crit_edge, !llvm.loop !36

._crit_edge:                                      ; preds = %54
  %.not = icmp eq i64 %.2, 0
  br i1 %.not, label %._crit_edge.thread, label %56

56:                                               ; preds = %.thread, %._crit_edge
  %.056 = phi i64 [ 3, %.thread ], [ %.2, %._crit_edge ]
  %57 = getelementptr inbounds nuw i8, ptr %7, i64 %.056
  %58 = sub nuw nsw i64 512, %.056
  %59 = call i32 (ptr, i64, ptr, ...) @snprintf(ptr noundef nonnull %57, i64 noundef %58, ptr noundef nonnull @.str.9) #9
  %.val = load ptr, ptr %0, align 8, !tbaa !7
  %60 = getelementptr i8, ptr %.val, i64 40
  %.val.val = load ptr, ptr %60, align 8, !tbaa !17
  %61 = getelementptr i8, ptr %.val, i64 48
  %.val.val53 = load ptr, ptr %61, align 8, !tbaa !30
  call void %.val.val(ptr noundef %.val.val53, i32 noundef %1, ptr noundef %2, i32 noundef %3, ptr noundef nonnull %7) #9
  br label %._crit_edge.thread

._crit_edge.thread:                               ; preds = %28, %._crit_edge, %56, %6, %9, %12
  call void @llvm.lifetime.end.p0(i64 512, ptr nonnull %7) #9
  ret void
}